
Allocating common symbols
Common symbol       size              file

msTicks             0x4               ..\obj\main.o

Discarded input sections

 .data          0x00000000        0x0 ..\obj\stm32f4xx_gpio.o
 .bss           0x00000000        0x0 ..\obj\stm32f4xx_gpio.o
 .text          0x00000000      0x700 ..\obj\stm32f4xx_dma.o
 .data          0x00000000        0x0 ..\obj\stm32f4xx_dma.o
 .bss           0x00000000        0x0 ..\obj\stm32f4xx_dma.o
 .debug_info    0x00000000      0x741 ..\obj\stm32f4xx_dma.o
 .debug_abbrev  0x00000000      0x157 ..\obj\stm32f4xx_dma.o
 .debug_aranges
                0x00000000       0x20 ..\obj\stm32f4xx_dma.o
 .debug_line    0x00000000      0x36d ..\obj\stm32f4xx_dma.o
 .debug_str     0x00000000      0x531 ..\obj\stm32f4xx_dma.o
 .comment       0x00000000       0x6f ..\obj\stm32f4xx_dma.o
 .debug_frame   0x00000000      0x308 ..\obj\stm32f4xx_dma.o
 .ARM.attributes
                0x00000000       0x33 ..\obj\stm32f4xx_dma.o
 .text          0x00000000      0x960 ..\obj\stm32f4xx_usart.o
 .data          0x00000000        0x0 ..\obj\stm32f4xx_usart.o
 .bss           0x00000000        0x0 ..\obj\stm32f4xx_usart.o
 .debug_info    0x00000000      0x9ca ..\obj\stm32f4xx_usart.o
 .debug_abbrev  0x00000000      0x157 ..\obj\stm32f4xx_usart.o
 .debug_aranges
                0x00000000       0x20 ..\obj\stm32f4xx_usart.o
 .debug_line    0x00000000      0x389 ..\obj\stm32f4xx_usart.o
 .debug_str     0x00000000      0x67e ..\obj\stm32f4xx_usart.o
 .comment       0x00000000       0x6f ..\obj\stm32f4xx_usart.o
 .debug_frame   0x00000000      0x490 ..\obj\stm32f4xx_usart.o
 .ARM.attributes
                0x00000000       0x33 ..\obj\stm32f4xx_usart.o
 .text          0x00000000      0xf98 ..\obj\stm32f4xx_can.o
 .data          0x00000000        0x0 ..\obj\stm32f4xx_can.o
 .bss           0x00000000        0x0 ..\obj\stm32f4xx_can.o
 .debug_info    0x00000000      0xba4 ..\obj\stm32f4xx_can.o
 .debug_abbrev  0x00000000      0x1f5 ..\obj\stm32f4xx_can.o
 .debug_aranges
                0x00000000       0x20 ..\obj\stm32f4xx_can.o
 .debug_line    0x00000000      0x44f ..\obj\stm32f4xx_can.o
 .debug_str     0x00000000      0x72d ..\obj\stm32f4xx_can.o
 .comment       0x00000000       0x6f ..\obj\stm32f4xx_can.o
 .debug_frame   0x00000000      0x3f0 ..\obj\stm32f4xx_can.o
 .ARM.attributes
                0x00000000       0x33 ..\obj\stm32f4xx_can.o
 .text          0x00000000     0x22b8 ..\obj\stm32f4xx_cryp_aes.o
 .data          0x00000000        0x0 ..\obj\stm32f4xx_cryp_aes.o
 .bss           0x00000000        0x0 ..\obj\stm32f4xx_cryp_aes.o
 .debug_info    0x00000000     0x16a7 ..\obj\stm32f4xx_cryp_aes.o
 .debug_abbrev  0x00000000      0x1cb ..\obj\stm32f4xx_cryp_aes.o
 .debug_aranges
                0x00000000       0x20 ..\obj\stm32f4xx_cryp_aes.o
 .debug_line    0x00000000      0xdfd ..\obj\stm32f4xx_cryp_aes.o
 .debug_str     0x00000000      0x4a8 ..\obj\stm32f4xx_cryp_aes.o
 .comment       0x00000000       0x6f ..\obj\stm32f4xx_cryp_aes.o
 .debug_frame   0x00000000       0xe4 ..\obj\stm32f4xx_cryp_aes.o
 .ARM.attributes
                0x00000000       0x33 ..\obj\stm32f4xx_cryp_aes.o
 .text          0x00000000      0xa3c ..\obj\stm32f4xx_ltdc.o
 .data          0x00000000        0x0 ..\obj\stm32f4xx_ltdc.o
 .bss           0x00000000        0x0 ..\obj\stm32f4xx_ltdc.o
 .debug_info    0x00000000      0xd00 ..\obj\stm32f4xx_ltdc.o
 .debug_abbrev  0x00000000      0x190 ..\obj\stm32f4xx_ltdc.o
 .debug_aranges
                0x00000000       0x20 ..\obj\stm32f4xx_ltdc.o
 .debug_line    0x00000000      0x3a9 ..\obj\stm32f4xx_ltdc.o
 .debug_str     0x00000000      0xa17 ..\obj\stm32f4xx_ltdc.o
 .comment       0x00000000       0x6f ..\obj\stm32f4xx_ltdc.o
 .debug_frame   0x00000000      0x4b4 ..\obj\stm32f4xx_ltdc.o
 .ARM.attributes
                0x00000000       0x33 ..\obj\stm32f4xx_ltdc.o
 .text          0x00000000      0xaac ..\obj\stm32f4xx_flash.o
 .data          0x00000000        0x0 ..\obj\stm32f4xx_flash.o
 .bss           0x00000000        0x0 ..\obj\stm32f4xx_flash.o
 .debug_info    0x00000000      0x93a ..\obj\stm32f4xx_flash.o
 .debug_abbrev  0x00000000      0x19a ..\obj\stm32f4xx_flash.o
 .debug_aranges
                0x00000000       0x20 ..\obj\stm32f4xx_flash.o
 .debug_line    0x00000000      0x399 ..\obj\stm32f4xx_flash.o
 .debug_str     0x00000000      0x68e ..\obj\stm32f4xx_flash.o
 .comment       0x00000000       0x6f ..\obj\stm32f4xx_flash.o
 .debug_frame   0x00000000      0x5b4 ..\obj\stm32f4xx_flash.o
 .ARM.attributes
                0x00000000       0x33 ..\obj\stm32f4xx_flash.o
 .text          0x00000000      0x878 ..\obj\stm32f4xx_spi.o
 .data          0x00000000        0x0 ..\obj\stm32f4xx_spi.o
 .bss           0x00000000        0x0 ..\obj\stm32f4xx_spi.o
 .debug_info    0x00000000      0xb29 ..\obj\stm32f4xx_spi.o
 .debug_abbrev  0x00000000      0x169 ..\obj\stm32f4xx_spi.o
 .debug_aranges
                0x00000000       0x20 ..\obj\stm32f4xx_spi.o
 .debug_line    0x00000000      0x35c ..\obj\stm32f4xx_spi.o
 .debug_str     0x00000000      0x68c ..\obj\stm32f4xx_spi.o
 .comment       0x00000000       0x6f ..\obj\stm32f4xx_spi.o
 .debug_frame   0x00000000      0x3f4 ..\obj\stm32f4xx_spi.o
 .ARM.attributes
                0x00000000       0x33 ..\obj\stm32f4xx_spi.o
 .text          0x00000000      0x3ec ..\obj\stm32f4xx_hash.o
 .data          0x00000000        0x0 ..\obj\stm32f4xx_hash.o
 .bss           0x00000000        0x0 ..\obj\stm32f4xx_hash.o
 .debug_info    0x00000000      0x5c3 ..\obj\stm32f4xx_hash.o
 .debug_abbrev  0x00000000      0x1d8 ..\obj\stm32f4xx_hash.o
 .debug_aranges
                0x00000000       0x20 ..\obj\stm32f4xx_hash.o
 .debug_line    0x00000000      0x2c3 ..\obj\stm32f4xx_hash.o
 .debug_str     0x00000000      0x44a ..\obj\stm32f4xx_hash.o
 .comment       0x00000000       0x6f ..\obj\stm32f4xx_hash.o
 .debug_frame   0x00000000      0x2bc ..\obj\stm32f4xx_hash.o
 .ARM.attributes
                0x00000000       0x33 ..\obj\stm32f4xx_hash.o
 .text          0x00000000       0xe4 ..\obj\stm32f4xx_dbgmcu.o
 .data          0x00000000        0x0 ..\obj\stm32f4xx_dbgmcu.o
 .bss           0x00000000        0x0 ..\obj\stm32f4xx_dbgmcu.o
 .debug_info    0x00000000      0x1e0 ..\obj\stm32f4xx_dbgmcu.o
 .debug_abbrev  0x00000000       0xe0 ..\obj\stm32f4xx_dbgmcu.o
 .debug_aranges
                0x00000000       0x20 ..\obj\stm32f4xx_dbgmcu.o
 .debug_line    0x00000000      0x1e7 ..\obj\stm32f4xx_dbgmcu.o
 .debug_str     0x00000000      0x22f ..\obj\stm32f4xx_dbgmcu.o
 .comment       0x00000000       0x6f ..\obj\stm32f4xx_dbgmcu.o
 .debug_frame   0x00000000       0xc8 ..\obj\stm32f4xx_dbgmcu.o
 .ARM.attributes
                0x00000000       0x33 ..\obj\stm32f4xx_dbgmcu.o
 .text          0x00000000      0x2a0 ..\obj\stm32f4xx_cryp_des.o
 .data          0x00000000        0x0 ..\obj\stm32f4xx_cryp_des.o
 .bss           0x00000000        0x0 ..\obj\stm32f4xx_cryp_des.o
 .debug_info    0x00000000      0x4e7 ..\obj\stm32f4xx_cryp_des.o
 .debug_abbrev  0x00000000      0x141 ..\obj\stm32f4xx_cryp_des.o
 .debug_aranges
                0x00000000       0x20 ..\obj\stm32f4xx_cryp_des.o
 .debug_line    0x00000000      0x327 ..\obj\stm32f4xx_cryp_des.o
 .debug_str     0x00000000      0x3ba ..\obj\stm32f4xx_cryp_des.o
 .comment       0x00000000       0x6f ..\obj\stm32f4xx_cryp_des.o
 .debug_frame   0x00000000       0x60 ..\obj\stm32f4xx_cryp_des.o
 .ARM.attributes
                0x00000000       0x33 ..\obj\stm32f4xx_cryp_des.o
 .text          0x00000000       0xc8 ..\obj\stm32f4xx_crc.o
 .data          0x00000000        0x0 ..\obj\stm32f4xx_crc.o
 .bss           0x00000000        0x0 ..\obj\stm32f4xx_crc.o
 .debug_info    0x00000000      0x208 ..\obj\stm32f4xx_crc.o
 .debug_abbrev  0x00000000      0x114 ..\obj\stm32f4xx_crc.o
 .debug_aranges
                0x00000000       0x20 ..\obj\stm32f4xx_crc.o
 .debug_line    0x00000000      0x1ee ..\obj\stm32f4xx_crc.o
 .debug_str     0x00000000      0x23a ..\obj\stm32f4xx_crc.o
 .comment       0x00000000       0x6f ..\obj\stm32f4xx_crc.o
 .debug_frame   0x00000000       0xe8 ..\obj\stm32f4xx_crc.o
 .ARM.attributes
                0x00000000       0x33 ..\obj\stm32f4xx_crc.o
 .text          0x00000000      0x188 ..\obj\misc.o
 .data          0x00000000        0x0 ..\obj\misc.o
 .bss           0x00000000        0x0 ..\obj\misc.o
 .debug_info    0x00000000      0x556 ..\obj\misc.o
 .debug_abbrev  0x00000000      0x147 ..\obj\misc.o
 .debug_aranges
                0x00000000       0x20 ..\obj\misc.o
 .debug_line    0x00000000      0x232 ..\obj\misc.o
 .debug_str     0x00000000      0x3bd ..\obj\misc.o
 .comment       0x00000000       0x6f ..\obj\misc.o
 .debug_frame   0x00000000       0xd8 ..\obj\misc.o
 .ARM.attributes
                0x00000000       0x33 ..\obj\misc.o
 .text          0x00000000       0xc4 ..\obj\stm32f4xx_iwdg.o
 .data          0x00000000        0x0 ..\obj\stm32f4xx_iwdg.o
 .bss           0x00000000        0x0 ..\obj\stm32f4xx_iwdg.o
 .debug_info    0x00000000      0x20e ..\obj\stm32f4xx_iwdg.o
 .debug_abbrev  0x00000000      0x103 ..\obj\stm32f4xx_iwdg.o
 .debug_aranges
                0x00000000       0x20 ..\obj\stm32f4xx_iwdg.o
 .debug_line    0x00000000      0x1e8 ..\obj\stm32f4xx_iwdg.o
 .debug_str     0x00000000      0x25b ..\obj\stm32f4xx_iwdg.o
 .comment       0x00000000       0x6f ..\obj\stm32f4xx_iwdg.o
 .debug_frame   0x00000000       0xf0 ..\obj\stm32f4xx_iwdg.o
 .ARM.attributes
                0x00000000       0x33 ..\obj\stm32f4xx_iwdg.o
 .text          0x00000000      0xa7c ..\obj\stm32f4xx_adc.o
 .data          0x00000000        0x0 ..\obj\stm32f4xx_adc.o
 .bss           0x00000000        0x0 ..\obj\stm32f4xx_adc.o
 .debug_info    0x00000000      0xc40 ..\obj\stm32f4xx_adc.o
 .debug_abbrev  0x00000000      0x198 ..\obj\stm32f4xx_adc.o
 .debug_aranges
                0x00000000       0x20 ..\obj\stm32f4xx_adc.o
 .debug_line    0x00000000      0x39d ..\obj\stm32f4xx_adc.o
 .debug_str     0x00000000      0x7f3 ..\obj\stm32f4xx_adc.o
 .comment       0x00000000       0x6f ..\obj\stm32f4xx_adc.o
 .debug_frame   0x00000000      0x5ec ..\obj\stm32f4xx_adc.o
 .ARM.attributes
                0x00000000       0x33 ..\obj\stm32f4xx_adc.o
 .data          0x00000000        0x0 ..\obj\motor.o
 .bss           0x00000000        0x0 ..\obj\motor.o
 .text          0x00000000      0xd94 ..\obj\stm32f4xx_fmc.o
 .data          0x00000000        0x0 ..\obj\stm32f4xx_fmc.o
 .bss           0x00000000        0x0 ..\obj\stm32f4xx_fmc.o
 .debug_info    0x00000000      0xc8e ..\obj\stm32f4xx_fmc.o
 .debug_abbrev  0x00000000      0x181 ..\obj\stm32f4xx_fmc.o
 .debug_aranges
                0x00000000       0x20 ..\obj\stm32f4xx_fmc.o
 .debug_line    0x00000000      0x491 ..\obj\stm32f4xx_fmc.o
 .debug_str     0x00000000      0xa5a ..\obj\stm32f4xx_fmc.o
 .comment       0x00000000       0x6f ..\obj\stm32f4xx_fmc.o
 .debug_frame   0x00000000      0x440 ..\obj\stm32f4xx_fmc.o
 .ARM.attributes
                0x00000000       0x33 ..\obj\stm32f4xx_fmc.o
 .text          0x00000000      0xa04 ..\obj\stm32f4xx_i2c.o
 .data          0x00000000        0x0 ..\obj\stm32f4xx_i2c.o
 .bss           0x00000000        0x0 ..\obj\stm32f4xx_i2c.o
 .debug_info    0x00000000      0xb93 ..\obj\stm32f4xx_i2c.o
 .debug_abbrev  0x00000000      0x166 ..\obj\stm32f4xx_i2c.o
 .debug_aranges
                0x00000000       0x20 ..\obj\stm32f4xx_i2c.o
 .debug_line    0x00000000      0x37f ..\obj\stm32f4xx_i2c.o
 .debug_str     0x00000000      0x6a1 ..\obj\stm32f4xx_i2c.o
 .comment       0x00000000       0x6f ..\obj\stm32f4xx_i2c.o
 .debug_frame   0x00000000      0x580 ..\obj\stm32f4xx_i2c.o
 .ARM.attributes
                0x00000000       0x33 ..\obj\stm32f4xx_i2c.o
 .text          0x00000000      0x424 ..\obj\stm32f4xx_dac.o
 .data          0x00000000        0x0 ..\obj\stm32f4xx_dac.o
 .bss           0x00000000        0x0 ..\obj\stm32f4xx_dac.o
 .debug_info    0x00000000      0x645 ..\obj\stm32f4xx_dac.o
 .debug_abbrev  0x00000000      0x17e ..\obj\stm32f4xx_dac.o
 .debug_aranges
                0x00000000       0x20 ..\obj\stm32f4xx_dac.o
 .debug_line    0x00000000      0x2aa ..\obj\stm32f4xx_dac.o
 .debug_str     0x00000000      0x442 ..\obj\stm32f4xx_dac.o
 .comment       0x00000000       0x6f ..\obj\stm32f4xx_dac.o
 .debug_frame   0x00000000      0x2ac ..\obj\stm32f4xx_dac.o
 .ARM.attributes
                0x00000000       0x33 ..\obj\stm32f4xx_dac.o
 .text          0x00000000      0x12c ..\obj\stm32f4xx_wwdg.o
 .data          0x00000000        0x0 ..\obj\stm32f4xx_wwdg.o
 .bss           0x00000000        0x0 ..\obj\stm32f4xx_wwdg.o
 .debug_info    0x00000000      0x24c ..\obj\stm32f4xx_wwdg.o
 .debug_abbrev  0x00000000      0x142 ..\obj\stm32f4xx_wwdg.o
 .debug_aranges
                0x00000000       0x20 ..\obj\stm32f4xx_wwdg.o
 .debug_line    0x00000000      0x1f7 ..\obj\stm32f4xx_wwdg.o
 .debug_str     0x00000000      0x266 ..\obj\stm32f4xx_wwdg.o
 .comment       0x00000000       0x6f ..\obj\stm32f4xx_wwdg.o
 .debug_frame   0x00000000      0x134 ..\obj\stm32f4xx_wwdg.o
 .ARM.attributes
                0x00000000       0x33 ..\obj\stm32f4xx_wwdg.o
 .text          0x00000000     0x1504 ..\obj\stm32f4xx_rtc.o
 .data          0x00000000        0x0 ..\obj\stm32f4xx_rtc.o
 .bss           0x00000000        0x0 ..\obj\stm32f4xx_rtc.o
 .debug_info    0x00000000     0x10eb ..\obj\stm32f4xx_rtc.o
 .debug_abbrev  0x00000000      0x1b0 ..\obj\stm32f4xx_rtc.o
 .debug_aranges
                0x00000000       0x20 ..\obj\stm32f4xx_rtc.o
 .debug_line    0x00000000      0x570 ..\obj\stm32f4xx_rtc.o
 .debug_str     0x00000000      0xb37 ..\obj\stm32f4xx_rtc.o
 .comment       0x00000000       0x6f ..\obj\stm32f4xx_rtc.o
 .debug_frame   0x00000000      0x8b0 ..\obj\stm32f4xx_rtc.o
 .ARM.attributes
                0x00000000       0x33 ..\obj\stm32f4xx_rtc.o
 .text          0x00000000      0x380 ..\obj\stm32f4xx_dcmi.o
 .data          0x00000000        0x0 ..\obj\stm32f4xx_dcmi.o
 .bss           0x00000000        0x0 ..\obj\stm32f4xx_dcmi.o
 .debug_info    0x00000000      0x554 ..\obj\stm32f4xx_dcmi.o
 .debug_abbrev  0x00000000      0x189 ..\obj\stm32f4xx_dcmi.o
 .debug_aranges
                0x00000000       0x20 ..\obj\stm32f4xx_dcmi.o
 .debug_line    0x00000000      0x2a8 ..\obj\stm32f4xx_dcmi.o
 .debug_str     0x00000000      0x4c8 ..\obj\stm32f4xx_dcmi.o
 .comment       0x00000000       0x6f ..\obj\stm32f4xx_dcmi.o
 .debug_frame   0x00000000      0x258 ..\obj\stm32f4xx_dcmi.o
 .ARM.attributes
                0x00000000       0x33 ..\obj\stm32f4xx_dcmi.o
 .text          0x00000000        0x0 ..\obj\lidar.o
 .data          0x00000000        0x0 ..\obj\lidar.o
 .bss           0x00000000        0x0 ..\obj\lidar.o
 .debug_line    0x00000000        0x0 ..\obj\lidar.o
 .debug_str     0x00000000       0xa1 ..\obj\lidar.o
 .comment       0x00000000       0x6f ..\obj\lidar.o
 .ARM.attributes
                0x00000000       0x33 ..\obj\lidar.o
 .text          0x00000000      0x14c ..\obj\stm32f4xx_syscfg.o
 .data          0x00000000        0x0 ..\obj\stm32f4xx_syscfg.o
 .bss           0x00000000        0x0 ..\obj\stm32f4xx_syscfg.o
 .debug_info    0x00000000      0x298 ..\obj\stm32f4xx_syscfg.o
 .debug_abbrev  0x00000000      0x133 ..\obj\stm32f4xx_syscfg.o
 .debug_aranges
                0x00000000       0x20 ..\obj\stm32f4xx_syscfg.o
 .debug_line    0x00000000      0x1f3 ..\obj\stm32f4xx_syscfg.o
 .debug_str     0x00000000      0x2fd ..\obj\stm32f4xx_syscfg.o
 .comment       0x00000000       0x6f ..\obj\stm32f4xx_syscfg.o
 .debug_frame   0x00000000      0x11c ..\obj\stm32f4xx_syscfg.o
 .ARM.attributes
                0x00000000       0x33 ..\obj\stm32f4xx_syscfg.o
 .text          0x00000000      0x330 ..\obj\stm32f4xx_hash_sha1.o
 .data          0x00000000        0x0 ..\obj\stm32f4xx_hash_sha1.o
 .bss           0x00000000        0x0 ..\obj\stm32f4xx_hash_sha1.o
 .debug_info    0x00000000      0x496 ..\obj\stm32f4xx_hash_sha1.o
 .debug_abbrev  0x00000000      0x173 ..\obj\stm32f4xx_hash_sha1.o
 .debug_aranges
                0x00000000       0x20 ..\obj\stm32f4xx_hash_sha1.o
 .debug_line    0x00000000      0x3aa ..\obj\stm32f4xx_hash_sha1.o
 .debug_str     0x00000000      0x2df ..\obj\stm32f4xx_hash_sha1.o
 .comment       0x00000000       0x6f ..\obj\stm32f4xx_hash_sha1.o
 .debug_frame   0x00000000       0x5c ..\obj\stm32f4xx_hash_sha1.o
 .ARM.attributes
                0x00000000       0x33 ..\obj\stm32f4xx_hash_sha1.o
 .data          0x00000000        0x0 ..\obj\startup_stm32f4xx.o
 .bss           0x00000000        0x0 ..\obj\startup_stm32f4xx.o
 .bss           0x00000000        0x0 ..\obj\stm32f4xx_rcc.o
 .text          0x00000000      0x524 ..\obj\stm32f4xx_sai.o
 .data          0x00000000        0x0 ..\obj\stm32f4xx_sai.o
 .bss           0x00000000        0x0 ..\obj\stm32f4xx_sai.o
 .debug_info    0x00000000      0x830 ..\obj\stm32f4xx_sai.o
 .debug_abbrev  0x00000000      0x171 ..\obj\stm32f4xx_sai.o
 .debug_aranges
                0x00000000       0x20 ..\obj\stm32f4xx_sai.o
 .debug_line    0x00000000      0x2fc ..\obj\stm32f4xx_sai.o
 .debug_str     0x00000000      0x5a8 ..\obj\stm32f4xx_sai.o
 .comment       0x00000000       0x6f ..\obj\stm32f4xx_sai.o
 .debug_frame   0x00000000      0x3f4 ..\obj\stm32f4xx_sai.o
 .ARM.attributes
                0x00000000       0x33 ..\obj\stm32f4xx_sai.o
 .text          0x00000000      0x320 ..\obj\stm32f4xx_pwr.o
 .data          0x00000000        0x0 ..\obj\stm32f4xx_pwr.o
 .bss           0x00000000        0x0 ..\obj\stm32f4xx_pwr.o
 .debug_info    0x00000000      0x5ea ..\obj\stm32f4xx_pwr.o
 .debug_abbrev  0x00000000      0x181 ..\obj\stm32f4xx_pwr.o
 .debug_aranges
                0x00000000       0x20 ..\obj\stm32f4xx_pwr.o
 .debug_line    0x00000000      0x277 ..\obj\stm32f4xx_pwr.o
 .debug_str     0x00000000      0x3be ..\obj\stm32f4xx_pwr.o
 .comment       0x00000000       0x6f ..\obj\stm32f4xx_pwr.o
 .debug_frame   0x00000000      0x27c ..\obj\stm32f4xx_pwr.o
 .ARM.attributes
                0x00000000       0x33 ..\obj\stm32f4xx_pwr.o
 .text          0x00000000      0x684 ..\obj\stm32f4xx_cryp.o
 .data          0x00000000        0x0 ..\obj\stm32f4xx_cryp.o
 .bss           0x00000000        0x0 ..\obj\stm32f4xx_cryp.o
 .debug_info    0x00000000      0x87a ..\obj\stm32f4xx_cryp.o
 .debug_abbrev  0x00000000      0x1a4 ..\obj\stm32f4xx_cryp.o
 .debug_aranges
                0x00000000       0x20 ..\obj\stm32f4xx_cryp.o
 .debug_line    0x00000000      0x319 ..\obj\stm32f4xx_cryp.o
 .debug_str     0x00000000      0x69f ..\obj\stm32f4xx_cryp.o
 .comment       0x00000000       0x6f ..\obj\stm32f4xx_cryp.o
 .debug_frame   0x00000000      0x2ec ..\obj\stm32f4xx_cryp.o
 .ARM.attributes
                0x00000000       0x33 ..\obj\stm32f4xx_cryp.o
 .text          0x00000000      0x4c4 ..\obj\stm32f4xx_sdio.o
 .data          0x00000000        0x0 ..\obj\stm32f4xx_sdio.o
 .bss           0x00000000        0x0 ..\obj\stm32f4xx_sdio.o
 .debug_info    0x00000000      0x7fd ..\obj\stm32f4xx_sdio.o
 .debug_abbrev  0x00000000      0x179 ..\obj\stm32f4xx_sdio.o
 .debug_aranges
                0x00000000       0x20 ..\obj\stm32f4xx_sdio.o
 .debug_line    0x00000000      0x2de ..\obj\stm32f4xx_sdio.o
 .debug_str     0x00000000      0x62f ..\obj\stm32f4xx_sdio.o
 .comment       0x00000000       0x6f ..\obj\stm32f4xx_sdio.o
 .debug_frame   0x00000000      0x48c ..\obj\stm32f4xx_sdio.o
 .ARM.attributes
                0x00000000       0x33 ..\obj\stm32f4xx_sdio.o
 .text          0x00000000      0x208 ..\obj\stm32f4xx_exti.o
 .data          0x00000000        0x0 ..\obj\stm32f4xx_exti.o
 .bss           0x00000000        0x0 ..\obj\stm32f4xx_exti.o
 .debug_info    0x00000000      0x348 ..\obj\stm32f4xx_exti.o
 .debug_abbrev  0x00000000      0x1a9 ..\obj\stm32f4xx_exti.o
 .debug_aranges
                0x00000000       0x20 ..\obj\stm32f4xx_exti.o
 .debug_line    0x00000000      0x265 ..\obj\stm32f4xx_exti.o
 .debug_str     0x00000000      0x33b ..\obj\stm32f4xx_exti.o
 .comment       0x00000000       0x6f ..\obj\stm32f4xx_exti.o
 .debug_frame   0x00000000      0x148 ..\obj\stm32f4xx_exti.o
 .ARM.attributes
                0x00000000       0x33 ..\obj\stm32f4xx_exti.o
 .text          0x00000000      0x35c ..\obj\stm32f4xx_cryp_tdes.o
 .data          0x00000000        0x0 ..\obj\stm32f4xx_cryp_tdes.o
 .bss           0x00000000        0x0 ..\obj\stm32f4xx_cryp_tdes.o
 .debug_info    0x00000000      0x5cc ..\obj\stm32f4xx_cryp_tdes.o
 .debug_abbrev  0x00000000      0x150 ..\obj\stm32f4xx_cryp_tdes.o
 .debug_aranges
                0x00000000       0x20 ..\obj\stm32f4xx_cryp_tdes.o
 .debug_line    0x00000000      0x398 ..\obj\stm32f4xx_cryp_tdes.o
 .debug_str     0x00000000      0x3c0 ..\obj\stm32f4xx_cryp_tdes.o
 .comment       0x00000000       0x6f ..\obj\stm32f4xx_cryp_tdes.o
 .debug_frame   0x00000000       0x60 ..\obj\stm32f4xx_cryp_tdes.o
 .ARM.attributes
                0x00000000       0x33 ..\obj\stm32f4xx_cryp_tdes.o
 .bss           0x00000000        0x0 ..\obj\system_stm32f4xx.o
 .text          0x00000000      0x14c ..\obj\stm32f4xx_rng.o
 .data          0x00000000        0x0 ..\obj\stm32f4xx_rng.o
 .bss           0x00000000        0x0 ..\obj\stm32f4xx_rng.o
 .debug_info    0x00000000      0x287 ..\obj\stm32f4xx_rng.o
 .debug_abbrev  0x00000000      0x146 ..\obj\stm32f4xx_rng.o
 .debug_aranges
                0x00000000       0x20 ..\obj\stm32f4xx_rng.o
 .debug_line    0x00000000      0x1fd ..\obj\stm32f4xx_rng.o
 .debug_str     0x00000000      0x268 ..\obj\stm32f4xx_rng.o
 .comment       0x00000000       0x6f ..\obj\stm32f4xx_rng.o
 .debug_frame   0x00000000      0x13c ..\obj\stm32f4xx_rng.o
 .ARM.attributes
                0x00000000       0x33 ..\obj\stm32f4xx_rng.o
 .text          0x00000000      0x30c ..\obj\stm32f4xx_hash_md5.o
 .data          0x00000000        0x0 ..\obj\stm32f4xx_hash_md5.o
 .bss           0x00000000        0x0 ..\obj\stm32f4xx_hash_md5.o
 .debug_info    0x00000000      0x45c ..\obj\stm32f4xx_hash_md5.o
 .debug_abbrev  0x00000000      0x173 ..\obj\stm32f4xx_hash_md5.o
 .debug_aranges
                0x00000000       0x20 ..\obj\stm32f4xx_hash_md5.o
 .debug_line    0x00000000      0x38d ..\obj\stm32f4xx_hash_md5.o
 .debug_str     0x00000000      0x2da ..\obj\stm32f4xx_hash_md5.o
 .comment       0x00000000       0x6f ..\obj\stm32f4xx_hash_md5.o
 .debug_frame   0x00000000       0x58 ..\obj\stm32f4xx_hash_md5.o
 .ARM.attributes
                0x00000000       0x33 ..\obj\stm32f4xx_hash_md5.o
 .text          0x00000000     0x1bf8 ..\obj\stm32f4xx_tim.o
 .data          0x00000000        0x0 ..\obj\stm32f4xx_tim.o
 .bss           0x00000000        0x0 ..\obj\stm32f4xx_tim.o
 .debug_info    0x00000000     0x1c69 ..\obj\stm32f4xx_tim.o
 .debug_abbrev  0x00000000      0x189 ..\obj\stm32f4xx_tim.o
 .debug_aranges
                0x00000000       0x20 ..\obj\stm32f4xx_tim.o
 .debug_line    0x00000000      0x644 ..\obj\stm32f4xx_tim.o
 .debug_str     0x00000000      0xdbf ..\obj\stm32f4xx_tim.o
 .comment       0x00000000       0x6f ..\obj\stm32f4xx_tim.o
 .debug_frame   0x00000000      0xe54 ..\obj\stm32f4xx_tim.o
 .ARM.attributes
                0x00000000       0x33 ..\obj\stm32f4xx_tim.o
 .text          0x00000000      0x67c ..\obj\stm32f4xx_dma2d.o
 .data          0x00000000        0x0 ..\obj\stm32f4xx_dma2d.o
 .bss           0x00000000        0x0 ..\obj\stm32f4xx_dma2d.o
 .debug_info    0x00000000      0x821 ..\obj\stm32f4xx_dma2d.o
 .debug_abbrev  0x00000000      0x1a8 ..\obj\stm32f4xx_dma2d.o
 .debug_aranges
                0x00000000       0x20 ..\obj\stm32f4xx_dma2d.o
 .debug_line    0x00000000      0x309 ..\obj\stm32f4xx_dma2d.o
 .debug_str     0x00000000      0x725 ..\obj\stm32f4xx_dma2d.o
 .comment       0x00000000       0x6f ..\obj\stm32f4xx_dma2d.o
 .debug_frame   0x00000000      0x2ec ..\obj\stm32f4xx_dma2d.o
 .ARM.attributes
                0x00000000       0x33 ..\obj\stm32f4xx_dma2d.o
 .data          0x00000000        0x0 ..\obj\main.o
 .bss           0x00000000        0x0 ..\obj\main.o
 .text          0x00000000        0x0 ..\obj\linkit.o
 .data          0x00000000        0x0 ..\obj\linkit.o
 .bss           0x00000000        0x0 ..\obj\linkit.o
 .debug_line    0x00000000        0x0 ..\obj\linkit.o
 .debug_str     0x00000000       0xa3 ..\obj\linkit.o
 .comment       0x00000000       0x6f ..\obj\linkit.o
 .ARM.attributes
                0x00000000       0x33 ..\obj\linkit.o

Memory Configuration

Name             Origin             Length             Attributes
rom              0x08000000         0x00080000         xr
ram              0x20000000         0x00030000         xrw
ram1             0x10000000         0x00010000         xrw
*default*        0x00000000         0xffffffff

Linker script and memory map

                0x20030000                _eram = 0x20030000

.text           0x08000000     0x1c34
 *(.isr_vector)
 .isr_vector    0x08000000      0x1ac ..\obj\startup_stm32f4xx.o
                0x08000000                g_pfnVectors
 *(.text*)
 .text          0x080001ac      0x4c8 ..\obj\stm32f4xx_gpio.o
                0x080001ac                GPIO_DeInit
                0x08000310                GPIO_Init
                0x0800042c                GPIO_StructInit
                0x08000460                GPIO_PinLockConfig
                0x080004a4                GPIO_ReadInputDataBit
                0x080004d8                GPIO_ReadInputData
                0x080004f0                GPIO_ReadOutputDataBit
                0x08000524                GPIO_ReadOutputData
                0x0800053c                GPIO_SetBits
                0x08000558                GPIO_ResetBits
                0x08000574                GPIO_WriteBit
                0x080005a4                GPIO_Write
                0x080005c0                GPIO_ToggleBits
                0x080005e4                GPIO_PinAFConfig
 .text          0x08000674      0x310 ..\obj\motor.o
                0x08000674                motorInit
                0x080006d4                stop
                0x08000734                forward
                0x08000770                backward
                0x080007ac                left
                0x080007e8                right
                0x08000824                forwardRight
                0x0800084c                forwardLeft
                0x08000874                backwardRight
                0x0800089c                backwardLeft
                0x080008c4                turningRight
                0x08000900                turningLeft
                0x0800093c                lateralArcRight
                0x08000960                lateralArcLeft
 .text          0x08000984       0x64 ..\obj\startup_stm32f4xx.o
                0x08000984                Default_Reset_Handler
                0x08000984                Reset_Handler
                0x080009d8                EXTI2_IRQHandler
                0x080009d8                TIM8_CC_IRQHandler
                0x080009d8                DebugMon_Handler
                0x080009d8                UART8_IRQHandler
                0x080009d8                SPI4_IRQHandler
                0x080009d8                TIM1_CC_IRQHandler
                0x080009d8                DMA2_Stream5_IRQHandler
                0x080009d8                HardFault_Handler
                0x080009d8                DMA1_Stream5_IRQHandler
                0x080009d8                PVD_IRQHandler
                0x080009d8                SDIO_IRQHandler
                0x080009d8                TAMP_STAMP_IRQHandler
                0x080009d8                PendSV_Handler
                0x080009d8                NMI_Handler
                0x080009d8                CAN2_RX1_IRQHandler
                0x080009d8                EXTI3_IRQHandler
                0x080009d8                TIM8_TRG_COM_TIM14_IRQHandler
                0x080009d8                TIM1_UP_TIM10_IRQHandler
                0x080009d8                TIM8_UP_TIM13_IRQHandler
                0x080009d8                HASH_RNG_IRQHandler
                0x080009d8                EXTI0_IRQHandler
                0x080009d8                I2C2_EV_IRQHandler
                0x080009d8                DMA1_Stream2_IRQHandler
                0x080009d8                CAN1_RX0_IRQHandler
                0x080009d8                FPU_IRQHandler
                0x080009d8                OTG_HS_WKUP_IRQHandler
                0x080009d8                UsageFault_Handler
                0x080009d8                LTDC_ER_IRQHandler
                0x080009d8                CAN2_SCE_IRQHandler
                0x080009d8                DMA2_Stream2_IRQHandler
                0x080009d8                SPI1_IRQHandler
                0x080009d8                TIM6_DAC_IRQHandler
                0x080009d8                TIM1_BRK_TIM9_IRQHandler
                0x080009d8                DCMI_IRQHandler
                0x080009d8                CAN2_RX0_IRQHandler
                0x080009d8                DMA2_Stream3_IRQHandler
                0x080009d8                USART6_IRQHandler
                0x080009d8                USART3_IRQHandler
                0x080009d8                CRYP_IRQHandler
                0x080009d8                I2C3_ER_IRQHandler
                0x080009d8                CAN1_RX1_IRQHandler
                0x080009d8                UART5_IRQHandler
                0x080009d8                DMA2_Stream0_IRQHandler
                0x080009d8                TIM4_IRQHandler
                0x080009d8                I2C1_EV_IRQHandler
                0x080009d8                DMA1_Stream6_IRQHandler
                0x080009d8                DMA1_Stream1_IRQHandler
                0x080009d8                UART4_IRQHandler
                0x080009d8                TIM3_IRQHandler
                0x080009d8                RCC_IRQHandler
                0x080009d8                TIM8_BRK_TIM12_IRQHandler
                0x080009d8                EXTI15_10_IRQHandler
                0x080009d8                ADC_IRQHandler
                0x080009d8                RTC_Alarm_IRQHandler
                0x080009d8                DMA1_Stream7_IRQHandler
                0x080009d8                SPI5_IRQHandler
                0x080009d8                TIM7_IRQHandler
                0x080009d8                CAN2_TX_IRQHandler
                0x080009d8                TIM5_IRQHandler
                0x080009d8                DMA2_Stream7_IRQHandler
                0x080009d8                I2C3_EV_IRQHandler
                0x080009d8                EXTI9_5_IRQHandler
                0x080009d8                RTC_WKUP_IRQHandler
                0x080009d8                LTDC_IRQHandler
                0x080009d8                ETH_WKUP_IRQHandler
                0x080009d8                SPI2_IRQHandler
                0x080009d8                OTG_HS_EP1_IN_IRQHandler
                0x080009d8                MemManage_Handler
                0x080009d8                DMA1_Stream0_IRQHandler
                0x080009d8                CAN1_TX_IRQHandler
                0x080009d8                SVC_Handler
                0x080009d8                EXTI4_IRQHandler
                0x080009d8                ETH_IRQHandler
                0x080009d8                OTG_HS_EP1_OUT_IRQHandler
                0x080009d8                WWDG_IRQHandler
                0x080009d8                SPI6_IRQHandler
                0x080009d8                TIM2_IRQHandler
                0x080009d8                OTG_FS_WKUP_IRQHandler
                0x080009d8                TIM1_TRG_COM_TIM11_IRQHandler
                0x080009d8                OTG_HS_IRQHandler
                0x080009d8                DMA2D_IRQHandler
                0x080009d8                EXTI1_IRQHandler
                0x080009d8                UART7_IRQHandler
                0x080009d8                USART2_IRQHandler
                0x080009d8                I2C2_ER_IRQHandler
                0x080009d8                DMA2_Stream1_IRQHandler
                0x080009d8                CAN1_SCE_IRQHandler
                0x080009d8                FLASH_IRQHandler
                0x080009d8                DMA2_Stream4_IRQHandler
                0x080009d8                BusFault_Handler
                0x080009d8                USART1_IRQHandler
                0x080009d8                OTG_FS_IRQHandler
                0x080009d8                SPI3_IRQHandler
                0x080009d8                DMA1_Stream4_IRQHandler
                0x080009d8                I2C1_ER_IRQHandler
                0x080009d8                FMC_IRQHandler
                0x080009d8                DMA2_Stream6_IRQHandler
                0x080009d8                SAI1_IRQHandler
                0x080009d8                DMA1_Stream3_IRQHandler
 .text          0x080009e8      0xc3c ..\obj\stm32f4xx_rcc.o
                0x080009e8                RCC_DeInit
                0x08000a58                RCC_HSEConfig
                0x08000a7c                RCC_WaitForHSEStartUp
                0x08000acc                RCC_AdjustHSICalibrationValue
                0x08000b08                RCC_HSICmd
                0x08000b28                RCC_LSEConfig
                0x08000b68                RCC_LSICmd
                0x08000b88                RCC_PLLConfig
                0x08000bc4                RCC_PLLCmd
                0x08000be4                RCC_PLLI2SConfig
                0x08000c14                RCC_PLLI2SCmd
                0x08000c34                RCC_PLLSAIConfig
                0x08000c64                RCC_PLLSAICmd
                0x08000c84                RCC_ClockSecuritySystemCmd
                0x08000ca4                RCC_MCO1Config
                0x08000ce0                RCC_MCO2Config
                0x08000d1c                RCC_SYSCLKConfig
                0x08000d54                RCC_GetSYSCLKSource
                0x08000d70                RCC_HCLKConfig
                0x08000da8                RCC_PCLK1Config
                0x08000de0                RCC_PCLK2Config
                0x08000e18                RCC_GetClocksFreq
                0x08000f6c                RCC_RTCCLKConfig
                0x08000fc8                RCC_RTCCLKCmd
                0x08000fe8                RCC_BackupResetCmd
                0x08001008                RCC_I2SCLKConfig
                0x08001024                RCC_SAIPLLI2SClkDivConfig
                0x08001060                RCC_SAIPLLSAIClkDivConfig
                0x080010a0                RCC_SAIBlockACLKConfig
                0x080010dc                RCC_SAIBlockBCLKConfig
                0x08001118                RCC_LTDCCLKDivConfig
                0x08001154                RCC_TIMCLKPresConfig
                0x08001170                RCC_AHB1PeriphClockCmd
                0x080011ac                RCC_AHB2PeriphClockCmd
                0x080011e8                RCC_AHB3PeriphClockCmd
                0x08001224                RCC_APB1PeriphClockCmd
                0x08001260                RCC_APB2PeriphClockCmd
                0x0800129c                RCC_AHB1PeriphResetCmd
                0x080012d8                RCC_AHB2PeriphResetCmd
                0x08001314                RCC_AHB3PeriphResetCmd
                0x08001350                RCC_APB1PeriphResetCmd
                0x0800138c                RCC_APB2PeriphResetCmd
                0x080013c8                RCC_AHB1PeriphClockLPModeCmd
                0x08001404                RCC_AHB2PeriphClockLPModeCmd
                0x08001440                RCC_AHB3PeriphClockLPModeCmd
                0x0800147c                RCC_APB1PeriphClockLPModeCmd
                0x080014b8                RCC_APB2PeriphClockLPModeCmd
                0x080014f4                RCC_ITConfig
                0x08001540                RCC_GetFlagStatus
                0x080015b4                RCC_ClearFlag
                0x080015d0                RCC_GetITStatus
                0x08001604                RCC_ClearITPendingBit
 .text          0x08001624      0x27c ..\obj\system_stm32f4xx.o
                0x08001624                SystemInit
                0x08001680                SystemCoreClockUpdate
 .text          0x080018a0      0x394 ..\obj\main.o
                0x08001938                lidarInit
                0x08001988                lidarSpeedMotor
                0x080019a8                lidarStop
                0x080019c4                lidarStart
                0x080019e0                TIM3_PWM_Init
                0x08001a68                UART4_Init
                0x08001af8                UART4_SendChar
                0x08001b28                UART4_ReceiveChar
                0x08001b50                SysTick_Handler
                0x08001b6c                Delay_ms
                0x08001b98                ledInit
                0x08001bdc                main
 *(.init)
 *(.fini)
 *crtbegin.o(.ctors)
 *crtbegin?.o(.ctors)
 *(EXCLUDE_FILE(*crtend.o *crtend?.o) .ctors)
 *(SORT(.ctors.*))
 *(.ctors)
 *crtbegin.o(.dtors)
 *crtbegin?.o(.dtors)
 *(EXCLUDE_FILE(*crtend.o *crtend?.o) .dtors)
 *(SORT(.dtors.*))
 *(.dtors)
 *(.rodata*)
 *(.eh_fram e*)

.glue_7         0x08001c34        0x0
 .glue_7        0x08001c34        0x0 linker stubs

.glue_7t        0x08001c34        0x0
 .glue_7t       0x08001c34        0x0 linker stubs

.vfp11_veneer   0x08001c34        0x0
 .vfp11_veneer  0x08001c34        0x0 linker stubs

.v4_bx          0x08001c34        0x0
 .v4_bx         0x08001c34        0x0 linker stubs

.iplt           0x08001c34        0x0
 .iplt          0x08001c34        0x0 ..\obj\stm32f4xx_gpio.o

.rel.dyn        0x08001c34        0x0
 .rel.iplt      0x08001c34        0x0 ..\obj\stm32f4xx_gpio.o

.ARM.extab
 *(.ARM.extab* .gnu.linkonce.armextab.*)
                0x08001c34                __exidx_start = .

.ARM.exidx
 *(.ARM.exidx* .gnu.linkonce.armexidx.*)
                0x08001c34                __exidx_end = .
                0x08001c34                __etext = .
                0x08001c34                _sidata = __etext

.data           0x20000000       0x24 load address 0x08001c34
                0x20000000                __data_start__ = .
                0x20000000                _sdata = __data_start__
 *(vtable)
 *(.data*)
 .data          0x20000000       0x10 ..\obj\stm32f4xx_rcc.o
 .data          0x20000010       0x14 ..\obj\system_stm32f4xx.o
                0x20000010                SystemCoreClock
                0x20000014                AHBPrescTable
                0x20000024                . = ALIGN (0x4)
                [!provide]                PROVIDE (__preinit_array_start, .)
 *(.preinit_array)
                [!provide]                PROVIDE (__preinit_array_end, .)
                0x20000024                . = ALIGN (0x4)
                [!provide]                PROVIDE (__init_array_start, .)
 *(SORT(.init_array.*))
 *(.init_array)
                [!provide]                PROVIDE (__init_array_end, .)
                0x20000024                . = ALIGN (0x4)
                [!provide]                PROVIDE (__fini_array_start, .)
 *(SORT(.fini_array.*))
 *(.fini_array)
                [!provide]                PROVIDE (__fini_array_end, .)
 *(.jcr*)
                0x20000024                . = ALIGN (0x4)
                0x20000024                __data_end__ = .
                0x20000024                _edata = __data_end__

.igot.plt       0x20000024        0x0 load address 0x08001c58
 .igot.plt      0x20000024        0x0 ..\obj\stm32f4xx_gpio.o

.bss            0x20000024        0x4 load address 0x08001c58
                0x20000024                . = ALIGN (0x4)
                0x20000024                __bss_start__ = .
                0x20000024                _sbss = __bss_start__
 *(.bss*)
 *(COMMON)
 COMMON         0x20000024        0x4 ..\obj\main.o
                0x20000024                msTicks
                0x20000028                . = ALIGN (0x4)
                0x20000028                __bss_end__ = .
                0x20000028                _ebss = __bss_end__

.heap           0x20000028        0x0
                0x20000028                __end__ = .
                0x20000028                _end = __end__
                0x20000028                end = __end__
 *(.heap*)
                0x20000028                __HeapLimit = .

.co_stack       0x20000028      0x800 load address 0x08001c5c
                0x20000028                . = ALIGN (0x8)
 *(.co_stack .co_stack.*)
 .co_stack      0x20000028      0x800 ..\obj\startup_stm32f4xx.o
                0x20000028                pulStack
                0x20030000                __StackTop = (ORIGIN (ram) + LENGTH (ram))
                0x2002f800                __StackLimit = (__StackTop - SIZEOF (.co_stack))
                [!provide]                PROVIDE (__stack, __StackTop)
                0x00000001                ASSERT ((__StackLimit >= __HeapLimit), region ram  overflowed with stack)
LOAD ..\obj\stm32f4xx_gpio.o
LOAD ..\obj\stm32f4xx_dma.o
LOAD ..\obj\stm32f4xx_usart.o
LOAD ..\obj\stm32f4xx_can.o
LOAD ..\obj\stm32f4xx_cryp_aes.o
LOAD ..\obj\stm32f4xx_ltdc.o
LOAD ..\obj\stm32f4xx_flash.o
LOAD ..\obj\stm32f4xx_spi.o
LOAD ..\obj\stm32f4xx_hash.o
LOAD ..\obj\stm32f4xx_dbgmcu.o
LOAD ..\obj\stm32f4xx_cryp_des.o
LOAD ..\obj\stm32f4xx_crc.o
LOAD ..\obj\misc.o
LOAD ..\obj\stm32f4xx_iwdg.o
LOAD ..\obj\stm32f4xx_adc.o
LOAD ..\obj\motor.o
LOAD ..\obj\stm32f4xx_fmc.o
LOAD ..\obj\stm32f4xx_i2c.o
LOAD ..\obj\stm32f4xx_dac.o
LOAD ..\obj\stm32f4xx_wwdg.o
LOAD ..\obj\stm32f4xx_rtc.o
LOAD ..\obj\stm32f4xx_dcmi.o
LOAD ..\obj\lidar.o
LOAD ..\obj\stm32f4xx_syscfg.o
LOAD ..\obj\stm32f4xx_hash_sha1.o
LOAD ..\obj\startup_stm32f4xx.o
LOAD ..\obj\stm32f4xx_rcc.o
LOAD ..\obj\stm32f4xx_sai.o
LOAD ..\obj\stm32f4xx_pwr.o
LOAD ..\obj\stm32f4xx_cryp.o
LOAD ..\obj\stm32f4xx_sdio.o
LOAD ..\obj\stm32f4xx_exti.o
LOAD ..\obj\stm32f4xx_cryp_tdes.o
LOAD ..\obj\system_stm32f4xx.o
LOAD ..\obj\stm32f4xx_rng.o
LOAD ..\obj\stm32f4xx_hash_md5.o
LOAD ..\obj\stm32f4xx_tim.o
LOAD ..\obj\stm32f4xx_dma2d.o
LOAD ..\obj\main.o
LOAD ..\obj\linkit.o
START GROUP
LOAD c:/program files (x86)/gnu tools arm embedded/5.4 2016q3/bin/../lib/gcc/arm-none-eabi/5.4.1/armv7e-m\libgcc.a
LOAD c:/program files (x86)/gnu tools arm embedded/5.4 2016q3/bin/../lib/gcc/arm-none-eabi/5.4.1/../../../../arm-none-eabi/lib/armv7e-m\libg.a
LOAD c:/program files (x86)/gnu tools arm embedded/5.4 2016q3/bin/../lib/gcc/arm-none-eabi/5.4.1/../../../../arm-none-eabi/lib/armv7e-m\libc.a
END GROUP
OUTPUT(stm32f429_project.elf elf32-littlearm)

.debug_info     0x00000000     0x2ef4
 .debug_info    0x00000000      0x61d ..\obj\stm32f4xx_gpio.o
 .debug_info    0x0000061d      0x53d ..\obj\motor.o
 .debug_info    0x00000b5a       0xf2 ..\obj\startup_stm32f4xx.o
 .debug_info    0x00000c4c      0xe27 ..\obj\stm32f4xx_rcc.o
 .debug_info    0x00001a73      0x5ef ..\obj\system_stm32f4xx.o
 .debug_info    0x00002062      0xe92 ..\obj\main.o

.debug_abbrev   0x00000000      0x8d8
 .debug_abbrev  0x00000000      0x1a7 ..\obj\stm32f4xx_gpio.o
 .debug_abbrev  0x000001a7      0x10a ..\obj\motor.o
 .debug_abbrev  0x000002b1       0xb0 ..\obj\startup_stm32f4xx.o
 .debug_abbrev  0x00000361      0x1bc ..\obj\stm32f4xx_rcc.o
 .debug_abbrev  0x0000051d      0x138 ..\obj\system_stm32f4xx.o
 .debug_abbrev  0x00000655      0x283 ..\obj\main.o

.debug_aranges  0x00000000       0xc0
 .debug_aranges
                0x00000000       0x20 ..\obj\stm32f4xx_gpio.o
 .debug_aranges
                0x00000020       0x20 ..\obj\motor.o
 .debug_aranges
                0x00000040       0x20 ..\obj\startup_stm32f4xx.o
 .debug_aranges
                0x00000060       0x20 ..\obj\stm32f4xx_rcc.o
 .debug_aranges
                0x00000080       0x20 ..\obj\system_stm32f4xx.o
 .debug_aranges
                0x000000a0       0x20 ..\obj\main.o

.debug_line     0x00000000      0xeb9
 .debug_line    0x00000000      0x2ef ..\obj\stm32f4xx_gpio.o
 .debug_line    0x000002ef      0x25f ..\obj\motor.o
 .debug_line    0x0000054e       0x97 ..\obj\startup_stm32f4xx.o
 .debug_line    0x000005e5      0x3de ..\obj\stm32f4xx_rcc.o
 .debug_line    0x000009c3      0x202 ..\obj\system_stm32f4xx.o
 .debug_line    0x00000bc5      0x2f4 ..\obj\main.o

.debug_str      0x00000000     0x167f
 .debug_str     0x00000000      0x439 ..\obj\stm32f4xx_gpio.o
                                0x48f (size before relaxing)
 .debug_str     0x00000439      0x1d9 ..\obj\motor.o
                                0x4ad (size before relaxing)
 .debug_str     0x00000612       0xb2 ..\obj\startup_stm32f4xx.o
                                0x136 (size before relaxing)
 .debug_str     0x000006c4      0x6e0 ..\obj\stm32f4xx_rcc.o
                                0x98c (size before relaxing)
 .debug_str     0x00000da4      0x121 ..\obj\system_stm32f4xx.o
                                0x3b3 (size before relaxing)
 .debug_str     0x00000ec5      0x7ba ..\obj\main.o
                                0xc18 (size before relaxing)

.comment        0x00000000       0x6e
 .comment       0x00000000       0x6e ..\obj\stm32f4xx_gpio.o
                                 0x6f (size before relaxing)
 .comment       0x0000006e       0x6f ..\obj\motor.o
 .comment       0x0000006e       0x6f ..\obj\startup_stm32f4xx.o
 .comment       0x0000006e       0x6f ..\obj\stm32f4xx_rcc.o
 .comment       0x0000006e       0x6f ..\obj\system_stm32f4xx.o
 .comment       0x0000006e       0x6f ..\obj\main.o

.ARM.attributes
                0x00000000       0x33
 .ARM.attributes
                0x00000000       0x33 ..\obj\stm32f4xx_gpio.o
 .ARM.attributes
                0x00000033       0x33 ..\obj\motor.o
 .ARM.attributes
                0x00000066       0x33 ..\obj\startup_stm32f4xx.o
 .ARM.attributes
                0x00000099       0x33 ..\obj\stm32f4xx_rcc.o
 .ARM.attributes
                0x000000cc       0x33 ..\obj\system_stm32f4xx.o
 .ARM.attributes
                0x000000ff       0x33 ..\obj\main.o

.debug_frame    0x00000000      0xea8
 .debug_frame   0x00000000      0x23c ..\obj\stm32f4xx_gpio.o
 .debug_frame   0x0000023c      0x1a0 ..\obj\motor.o
 .debug_frame   0x000003dc       0x4c ..\obj\startup_stm32f4xx.o
 .debug_frame   0x00000428      0x814 ..\obj\stm32f4xx_rcc.o
 .debug_frame   0x00000c3c       0x7c ..\obj\system_stm32f4xx.o
 .debug_frame   0x00000cb8      0x1f0 ..\obj\main.o
